target datalayout = "e-m:e-p270:32:32-p271:32:32-p272:64:64-i64:64-i128:128-f80:128-n8:16:32:64-S128"
target triple = "x86_64-pc-linux-gnu"

%struct._object = type { %union.anon, ptr }
%union.anon = type { i64 }
%struct.PyVarObject = type { %struct._object, i64 }
%struct._typeobject = type { %struct.PyVarObject, ptr, i64, i64, ptr, i64, ptr, ptr, ptr, ptr, ptr, ptr, ptr, ptr, ptr, ptr, ptr, ptr, ptr, i64, ptr, ptr, ptr, ptr, i64, ptr, ptr, ptr, ptr, ptr, ptr, ptr, ptr, ptr, i64, ptr, ptr, ptr, ptr, ptr, ptr, ptr, ptr, ptr, ptr, ptr, i32, ptr, ptr, i8, i16 }
%struct.collections_state = type { ptr, ptr, ptr, ptr, ptr }
%struct.PyModuleObject = type { %struct._object, ptr, ptr, ptr, ptr, ptr }

@PyDict_Type = external global %struct._typeobject, align 8
@PyODict_Type = external global %struct._typeobject, align 8
@deque_spec = internal global { ptr, i32, i32, i32, [4 x i8], ptr } { ptr @.str.4, i32 216, i32 0, i32 17696, [4 x i8] zeroinitializer, ptr @deque_slots }, align 8
@defdict_spec = internal global { ptr, i32, i32, i32, [4 x i8], ptr } { ptr @.str.49, i32 56, i32 0, i32 17664, [4 x i8] zeroinitializer, ptr @defdict_slots }, align 8
@dequeiter_spec = internal global { ptr, i32, i32, i32, [4 x i8], ptr } { ptr @.str.61, i32 56, i32 0, i32 16640, [4 x i8] zeroinitializer, ptr @dequeiter_slots }, align 8
@dequereviter_spec = internal global { ptr, i32, i32, i32, [4 x i8], ptr } { ptr @.str.68, i32 56, i32 0, i32 16640, [4 x i8] zeroinitializer, ptr @dequereviter_slots }, align 8
@tuplegetter_spec = internal global { ptr, i32, i32, i32, [4 x i8], ptr } { ptr @.str.71, i32 32, i32 0, i32 16640, [4 x i8] zeroinitializer, ptr @tuplegetter_slots }, align 8

; Function Attrs: inlinehint nounwind uwtable
define internal ptr @_PyModule_GetState(ptr noundef %0) #3 {
  %2 = alloca ptr, align 8
  store ptr %0, ptr %2, align 8, !tbaa !4
  %3 = load ptr, ptr %2, align 8, !tbaa !4
  %4 = getelementptr inbounds nuw %struct.PyModuleObject, ptr %3, i32 0, i32 3
  %5 = load ptr, ptr %4, align 8, !tbaa !40
  ret ptr %5
}

; Function Attrs: inlinehint nounwind uwtable
define internal ptr @get_module_state(ptr noundef %0) #3 {
  %2 = alloca ptr, align 8
  %3 = alloca ptr, align 8
  store ptr %0, ptr %2, align 8, !tbaa !4
  call void @llvm.lifetime.start.p0(i64 8, ptr %3) #7
  %4 = load ptr, ptr %2, align 8, !tbaa !4
  %5 = call ptr @_PyModule_GetState(ptr noundef %4)
  store ptr %5, ptr %3, align 8, !tbaa !9
  %6 = load ptr, ptr %3, align 8, !tbaa !9
  call void @llvm.lifetime.end.p0(i64 8, ptr %3) #7
  ret ptr %6
}

; Function Attrs: nounwind uwtable
define internal i32 @collections_exec(ptr noundef %0) #0 {
  %2 = alloca i32, align 4
  %3 = alloca ptr, align 8
  %4 = alloca ptr, align 8
  %5 = alloca i32, align 4
  store ptr %0, ptr %3, align 8, !tbaa !4
  call void @llvm.lifetime.start.p0(i64 8, ptr %4) #7
  %6 = load ptr, ptr %3, align 8, !tbaa !4
  %7 = call ptr @get_module_state(ptr noundef %6)
  store ptr %7, ptr %4, align 8, !tbaa !9
  br label %8

8:                                                ; preds = %1
  %9 = load ptr, ptr %3, align 8, !tbaa !4
  %10 = call ptr @PyType_FromMetaclass(ptr noundef null, ptr noundef %9, ptr noundef @deque_spec, ptr noundef null)
  %11 = load ptr, ptr %4, align 8, !tbaa !9
  %12 = getelementptr inbounds nuw %struct.collections_state, ptr %11, i32 0, i32 0
  store ptr %10, ptr %12, align 8, !tbaa !10
  %13 = load ptr, ptr %4, align 8, !tbaa !9
  %14 = getelementptr inbounds nuw %struct.collections_state, ptr %13, i32 0, i32 0
  %15 = load ptr, ptr %14, align 8, !tbaa !10
  %16 = icmp eq ptr %15, null
  br i1 %16, label %17, label %18

17:                                               ; preds = %8
  store i32 -1, ptr %2, align 4
  store i32 1, ptr %5, align 4
  br label %118

18:                                               ; preds = %8
  %19 = load ptr, ptr %3, align 8, !tbaa !4
  %20 = load ptr, ptr %4, align 8, !tbaa !9
  %21 = getelementptr inbounds nuw %struct.collections_state, ptr %20, i32 0, i32 0
  %22 = load ptr, ptr %21, align 8, !tbaa !10
  %23 = call i32 @PyModule_AddType(ptr noundef %19, ptr noundef %22)
  %24 = icmp slt i32 %23, 0
  br i1 %24, label %25, label %26

25:                                               ; preds = %18
  store i32 -1, ptr %2, align 4
  store i32 1, ptr %5, align 4
  br label %118

26:                                               ; preds = %18
  br label %27

27:                                               ; preds = %26
  br label %28

28:                                               ; preds = %27
  br label %29

29:                                               ; preds = %28
  %30 = load ptr, ptr %3, align 8, !tbaa !4
  %31 = call ptr @PyType_FromMetaclass(ptr noundef null, ptr noundef %30, ptr noundef @defdict_spec, ptr noundef @PyDict_Type)
  %32 = load ptr, ptr %4, align 8, !tbaa !9
  %33 = getelementptr inbounds nuw %struct.collections_state, ptr %32, i32 0, i32 1
  store ptr %31, ptr %33, align 8, !tbaa !15
  %34 = load ptr, ptr %4, align 8, !tbaa !9
  %35 = getelementptr inbounds nuw %struct.collections_state, ptr %34, i32 0, i32 1
  %36 = load ptr, ptr %35, align 8, !tbaa !15
  %37 = icmp eq ptr %36, null
  br i1 %37, label %38, label %39

38:                                               ; preds = %29
  store i32 -1, ptr %2, align 4
  store i32 1, ptr %5, align 4
  br label %118

39:                                               ; preds = %29
  %40 = load ptr, ptr %3, align 8, !tbaa !4
  %41 = load ptr, ptr %4, align 8, !tbaa !9
  %42 = getelementptr inbounds nuw %struct.collections_state, ptr %41, i32 0, i32 1
  %43 = load ptr, ptr %42, align 8, !tbaa !15
  %44 = call i32 @PyModule_AddType(ptr noundef %40, ptr noundef %43)
  %45 = icmp slt i32 %44, 0
  br i1 %45, label %46, label %47

46:                                               ; preds = %39
  store i32 -1, ptr %2, align 4
  store i32 1, ptr %5, align 4
  br label %118

47:                                               ; preds = %39
  br label %48

48:                                               ; preds = %47
  br label %49

49:                                               ; preds = %48
  br label %50

50:                                               ; preds = %49
  %51 = load ptr, ptr %3, align 8, !tbaa !4
  %52 = call ptr @PyType_FromMetaclass(ptr noundef null, ptr noundef %51, ptr noundef @dequeiter_spec, ptr noundef null)
  %53 = load ptr, ptr %4, align 8, !tbaa !9
  %54 = getelementptr inbounds nuw %struct.collections_state, ptr %53, i32 0, i32 2
  store ptr %52, ptr %54, align 8, !tbaa !16
  %55 = load ptr, ptr %4, align 8, !tbaa !9
  %56 = getelementptr inbounds nuw %struct.collections_state, ptr %55, i32 0, i32 2
  %57 = load ptr, ptr %56, align 8, !tbaa !16
  %58 = icmp eq ptr %57, null
  br i1 %58, label %59, label %60

59:                                               ; preds = %50
  store i32 -1, ptr %2, align 4
  store i32 1, ptr %5, align 4
  br label %118

60:                                               ; preds = %50
  %61 = load ptr, ptr %3, align 8, !tbaa !4
  %62 = load ptr, ptr %4, align 8, !tbaa !9
  %63 = getelementptr inbounds nuw %struct.collections_state, ptr %62, i32 0, i32 2
  %64 = load ptr, ptr %63, align 8, !tbaa !16
  %65 = call i32 @PyModule_AddType(ptr noundef %61, ptr noundef %64)
  %66 = icmp slt i32 %65, 0
  br i1 %66, label %67, label %68

67:                                               ; preds = %60
  store i32 -1, ptr %2, align 4
  store i32 1, ptr %5, align 4
  br label %118

68:                                               ; preds = %60
  br label %69

69:                                               ; preds = %68
  br label %70

70:                                               ; preds = %69
  br label %71

71:                                               ; preds = %70
  %72 = load ptr, ptr %3, align 8, !tbaa !4
  %73 = call ptr @PyType_FromMetaclass(ptr noundef null, ptr noundef %72, ptr noundef @dequereviter_spec, ptr noundef null)
  %74 = load ptr, ptr %4, align 8, !tbaa !9
  %75 = getelementptr inbounds nuw %struct.collections_state, ptr %74, i32 0, i32 3
  store ptr %73, ptr %75, align 8, !tbaa !17
  %76 = load ptr, ptr %4, align 8, !tbaa !9
  %77 = getelementptr inbounds nuw %struct.collections_state, ptr %76, i32 0, i32 3
  %78 = load ptr, ptr %77, align 8, !tbaa !17
  %79 = icmp eq ptr %78, null
  br i1 %79, label %80, label %81

80:                                               ; preds = %71
  store i32 -1, ptr %2, align 4
  store i32 1, ptr %5, align 4
  br label %118

81:                                               ; preds = %71
  %82 = load ptr, ptr %3, align 8, !tbaa !4
  %83 = load ptr, ptr %4, align 8, !tbaa !9
  %84 = getelementptr inbounds nuw %struct.collections_state, ptr %83, i32 0, i32 3
  %85 = load ptr, ptr %84, align 8, !tbaa !17
  %86 = call i32 @PyModule_AddType(ptr noundef %82, ptr noundef %85)
  %87 = icmp slt i32 %86, 0
  br i1 %87, label %88, label %89

88:                                               ; preds = %81
  store i32 -1, ptr %2, align 4
  store i32 1, ptr %5, align 4
  br label %118

89:                                               ; preds = %81
  br label %90

90:                                               ; preds = %89
  br label %91

91:                                               ; preds = %90
  br label %92

92:                                               ; preds = %91
  %93 = load ptr, ptr %3, align 8, !tbaa !4
  %94 = call ptr @PyType_FromMetaclass(ptr noundef null, ptr noundef %93, ptr noundef @tuplegetter_spec, ptr noundef null)
  %95 = load ptr, ptr %4, align 8, !tbaa !9
  %96 = getelementptr inbounds nuw %struct.collections_state, ptr %95, i32 0, i32 4
  store ptr %94, ptr %96, align 8, !tbaa !18
  %97 = load ptr, ptr %4, align 8, !tbaa !9
  %98 = getelementptr inbounds nuw %struct.collections_state, ptr %97, i32 0, i32 4
  %99 = load ptr, ptr %98, align 8, !tbaa !18
  %100 = icmp eq ptr %99, null
  br i1 %100, label %101, label %102

101:                                              ; preds = %92
  store i32 -1, ptr %2, align 4
  store i32 1, ptr %5, align 4
  br label %118

102:                                              ; preds = %92
  %103 = load ptr, ptr %3, align 8, !tbaa !4
  %104 = load ptr, ptr %4, align 8, !tbaa !9
  %105 = getelementptr inbounds nuw %struct.collections_state, ptr %104, i32 0, i32 4
  %106 = load ptr, ptr %105, align 8, !tbaa !18
  %107 = call i32 @PyModule_AddType(ptr noundef %103, ptr noundef %106)
  %108 = icmp slt i32 %107, 0
  br i1 %108, label %109, label %110

109:                                              ; preds = %102
  store i32 -1, ptr %2, align 4
  store i32 1, ptr %5, align 4
  br label %118

110:                                              ; preds = %102
  br label %111

111:                                              ; preds = %110
  br label %112

112:                                              ; preds = %111
  %113 = load ptr, ptr %3, align 8, !tbaa !4
  %114 = call i32 @PyModule_AddType(ptr noundef %113, ptr noundef @PyODict_Type)
  %115 = icmp slt i32 %114, 0
  br i1 %115, label %116, label %117

116:                                              ; preds = %112
  store i32 -1, ptr %2, align 4
  store i32 1, ptr %5, align 4
  br label %118

117:                                              ; preds = %112
  store i32 0, ptr %2, align 4
  store i32 1, ptr %5, align 4
  br label %118

118:                                              ; preds = %117, %116, %109, %101, %88, %80, %67, %59, %46, %38, %25, %17
  call void @llvm.lifetime.end.p0(i64 8, ptr %4) #7
  %119 = load i32, ptr %2, align 4
  ret i32 %119
}