; Function Attrs: nounwind uwtable
define internal range(i32 -1, 1) i32 @collections_exec(ptr noundef %0) #0 {
  %2 = getelementptr i8, ptr %0, i64 32
  %.val = load ptr, ptr %2, align 8, !tbaa !4
  %3 = tail call ptr @PyType_FromMetaclass(ptr noundef null, ptr noundef %0, ptr noundef nonnull @deque_spec, ptr noundef null) #9
  store ptr %3, ptr %.val, align 8, !tbaa !13
  %4 = icmp eq ptr %3, null
  br i1 %4, label %38, label %5

5:                                                ; preds = %1
  %6 = tail call i32 @PyModule_AddType(ptr noundef nonnull %0, ptr noundef nonnull %3) #9
  %7 = icmp slt i32 %6, 0
  br i1 %7, label %38, label %8

8:                                                ; preds = %5
  %9 = tail call ptr @PyType_FromMetaclass(ptr noundef null, ptr noundef nonnull %0, ptr noundef nonnull @defdict_spec, ptr noundef nonnull @PyDict_Type) #9
  %10 = getelementptr inbounds nuw i8, ptr %.val, i64 8
  store ptr %9, ptr %10, align 8, !tbaa !15
  %11 = icmp eq ptr %9, null
  br i1 %11, label %38, label %12

12:                                               ; preds = %8
  %13 = tail call i32 @PyModule_AddType(ptr noundef nonnull %0, ptr noundef nonnull %9) #9
  %14 = icmp slt i32 %13, 0
  br i1 %14, label %38, label %15

15:                                               ; preds = %12
  %16 = tail call ptr @PyType_FromMetaclass(ptr noundef null, ptr noundef nonnull %0, ptr noundef nonnull @dequeiter_spec, ptr noundef null) #9
  %17 = getelementptr inbounds nuw i8, ptr %.val, i64 16
  store ptr %16, ptr %17, align 8, !tbaa !16
  %18 = icmp eq ptr %16, null
  br i1 %18, label %38, label %19

19:                                               ; preds = %15
  %20 = tail call i32 @PyModule_AddType(ptr noundef nonnull %0, ptr noundef nonnull %16) #9
  %21 = icmp slt i32 %20, 0
  br i1 %21, label %38, label %22

22:                                               ; preds = %19
  %23 = tail call ptr @PyType_FromMetaclass(ptr noundef null, ptr noundef nonnull %0, ptr noundef nonnull @dequereviter_spec, ptr noundef null) #9
  %24 = getelementptr inbounds nuw i8, ptr %.val, i64 24
  store ptr %23, ptr %24, align 8, !tbaa !17
  %25 = icmp eq ptr %23, null
  br i1 %25, label %38, label %26

26:                                               ; preds = %22
  %27 = tail call i32 @PyModule_AddType(ptr noundef nonnull %0, ptr noundef nonnull %23) #9
  %28 = icmp slt i32 %27, 0
  br i1 %28, label %38, label %29

29:                                               ; preds = %26
  %30 = tail call ptr @PyType_FromMetaclass(ptr noundef null, ptr noundef nonnull %0, ptr noundef nonnull @tuplegetter_spec, ptr noundef null) #9
  %31 = getelementptr inbounds nuw i8, ptr %.val, i64 32
  store ptr %30, ptr %31, align 8, !tbaa !18
  %32 = icmp eq ptr %30, null
  br i1 %32, label %38, label %33

33:                                               ; preds = %29
  %34 = tail call i32 @PyModule_AddType(ptr noundef nonnull %0, ptr noundef nonnull %30) #9
  %35 = icmp slt i32 %34, 0
  br i1 %35, label %38, label %36

36:                                               ; preds = %33
  %37 = tail call i32 @PyModule_AddType(ptr noundef nonnull %0, ptr noundef nonnull @PyODict_Type) #9
  %.lobit = ashr i32 %37, 31
  br label %38

38:                                               ; preds = %36, %33, %29, %26, %22, %19, %15, %12, %8, %5, %1
  %.0 = phi i32 [ -1, %1 ], [ -1, %5 ], [ -1, %8 ], [ -1, %12 ], [ -1, %15 ], [ -1, %19 ], [ -1, %22 ], [ -1, %26 ], [ -1, %29 ], [ -1, %33 ], [ %.lobit, %36 ]
  ret i32 %.0
}